(dp1
S'csrf_token'
p2
S'eff2429ad232ba5d239c6c43ca604c76e52edb83'
p3
sS'_fresh'
p4
I00
sS'user_id'
p5
V1
sS'shipping'
p6
(dp7
S'price'
p8
I0
sS'name'
p9
NssS'_id'
p10
S'5d6fff0a43f8223dfdabd5c1e98057cf'
p11
sS'cart'
p12
(dp13
s.