(dp1
S'csrf_token'
p2
S'eff2429ad232ba5d239c6c43ca604c76e52edb83'
p3
sS'_id'
p4
S'd4a17fc07ddcbcd90ff743d0b09c0094'
p5
sS'cart'
p6
(dp7
I17
(dp8
S'price'
p9
F122
sS'quantity'
p10
I1
sssS'shipping'
p11
(dp12
S'price'
p13
I0
sS'name'
p14
Nss.