(dp1
S'csrf_token'
p2
S'958ea6e860e17993c4033dd43c0f671d7e84d3bf'
p3
sS'_fresh'
p4
I00
sS'user_id'
p5
V1
sS'cart'
p6
(dp7
I1
(dp8
S'price'
p9
F1
sS'quantity'
p10
I1
sssS'_id'
p11
S'5d6fff0a43f8223dfdabd5c1e98057cf'
p12
sS'shipping'
p13
(dp14
S'price'
p15
I0
sS'name'
p16
Nss.