(dp1
S'csrf_token'
p2
S'958ea6e860e17993c4033dd43c0f671d7e84d3bf'
p3
sS'_fresh'
p4
I00
sS'user_id'
p5
V1
sS'shipping'
p6
(dp7
S'price'
p8
I0
sS'name'
p9
NssS'_id'
p10
S'5d6fff0a43f8223dfdabd5c1e98057cf'
p11
sS'cart'
p12
(dp13
I1
(dp14
S'price'
p15
F1
sS'quantity'
p16
I1
sss.