(dp1
S'csrf_token'
p2
S'958ea6e860e17993c4033dd43c0f671d7e84d3bf'
p3
sS'_fresh'
p4
I00
sS'cart'
p5
(dp6
sS'shipping'
p7
(dp8
S'price'
p9
I0
sS'name'
p10
NssS'_id'
p11
S'd4a17fc07ddcbcd90ff743d0b09c0094'
p12
s.