(dp1
S'csrf_token'
p2
S'd079e5352025effb477bdb9992e499fca6f41120'
p3
sS'_fresh'
p4
I01
sS'user_id'
p5
V2
sS'cart'
p6
(dp7
sS'_id'
p8
S'e7398659c494acbec06d31a53a9ee6af'
p9
sS'shipping'
p10
(dp11
S'price'
p12
I0
sS'name'
p13
Nss.