(dp1
S'csrf_token'
p2
S'4288a4a477d739a0a10f142c17f03ad10981e323'
p3
sS'_fresh'
p4
I01
sS'user_id'
p5
V1
sS'cart'
p6
(dp7
sS'_id'
p8
S'e90c41f3129c33fd98116010123585a9'
p9
sS'shipping'
p10
(dp11
S'price'
p12
I0
sS'name'
p13
Nss.