(dp1
S'csrf_token'
p2
S'c2a0f943245ccf4c17ba9958656892a424890d15'
p3
sS'_fresh'
p4
I01
sS'user_id'
p5
V1
sS'cart'
p6
(dp7
I1
(dp8
S'price'
p9
F23.300000000000001
sS'quantity'
p10
I1
sssS'_id'
p11
S'e7398659c494acbec06d31a53a9ee6af'
p12
s.